target datalayout = "e-m:e-p270:32:32-p271:32:32-p272:64:64-i64:64-i128:128-f80:128-n8:16:32:64-S128"
target triple = "x86_64-unknown-linux-gnu"

%"class.absl::lts_20230802::Span" = type { ptr, i64 }
%"class.std::basic_string_view" = type { i64, ptr }

@_ZN6google8protobuf8compilerL13kEmptyPackageE = internal constant { %"class.absl::lts_20230802::Span", i32 } { %"class.absl::lts_20230802::Span" zeroinitializer, i32 4 }, align 8
@_ZN6google8protobuf8compilerL15kTradeFedProtosE = internal constant { %"class.absl::lts_20230802::Span", i32 } zeroinitializer, align 8
@_ZN6google8protobuf8compilerL13k3pCriuProtosE = internal constant { %"class.absl::lts_20230802::Span", i32 } zeroinitializer, align 8

; Function Attrs: mustprogress uwtable
define hidden noundef zeroext i1 @_ZN6google8protobuf8compiler18IsEmptyPackageFileESt17basic_string_viewIcSt11char_traitsIcEE(i64 %file.coerce0, ptr %file.coerce1) #4 {
entry:
  %file = alloca %"class.std::basic_string_view", align 8
  %agg.tmp = alloca %"class.std::basic_string_view", align 8
  %agg.tmp1 = alloca %"class.std::basic_string_view", align 8
  %agg.tmp3 = alloca %"class.std::basic_string_view", align 8
  %0 = getelementptr inbounds { i64, ptr }, ptr %file, i32 0, i32 0
  store i64 %file.coerce0, ptr %0, align 8
  %1 = getelementptr inbounds { i64, ptr }, ptr %file, i32 0, i32 1
  store ptr %file.coerce1, ptr %1, align 8
  call void @llvm.memcpy.p0.p0.i64(ptr align 8 %agg.tmp, ptr align 8 %file, i64 16, i1 false)
  %2 = getelementptr inbounds { i64, ptr }, ptr %agg.tmp, i32 0, i32 0
  %3 = load i64, ptr %2, align 8
  %4 = getelementptr inbounds { i64, ptr }, ptr %agg.tmp, i32 0, i32 1
  %5 = load ptr, ptr %4, align 8
  %call = call noundef zeroext i1 @_ZNK6google8protobuf8compiler8internal9AllowlistILm0EE6AllowsESt17basic_string_viewIcSt11char_traitsIcEE(ptr noundef nonnull align 8 dereferenceable(24) @_ZN6google8protobuf8compilerL13kEmptyPackageE, i64 %3, ptr %5)
  br i1 %call, label %lor.end, label %lor.lhs.false

lor.lhs.false:                                    ; preds = %entry
  call void @llvm.memcpy.p0.p0.i64(ptr align 8 %agg.tmp1, ptr align 8 %file, i64 16, i1 false)
  %6 = getelementptr inbounds { i64, ptr }, ptr %agg.tmp1, i32 0, i32 0
  %7 = load i64, ptr %6, align 8
  %8 = getelementptr inbounds { i64, ptr }, ptr %agg.tmp1, i32 0, i32 1
  %9 = load ptr, ptr %8, align 8
  %call2 = call noundef zeroext i1 @_ZNK6google8protobuf8compiler8internal9AllowlistILm0EE6AllowsESt17basic_string_viewIcSt11char_traitsIcEE(ptr noundef nonnull align 8 dereferenceable(24) @_ZN6google8protobuf8compilerL15kTradeFedProtosE, i64 %7, ptr %9)
  br i1 %call2, label %lor.end, label %lor.rhs

lor.rhs:                                          ; preds = %lor.lhs.false
  call void @llvm.memcpy.p0.p0.i64(ptr align 8 %agg.tmp3, ptr align 8 %file, i64 16, i1 false)
  %10 = getelementptr inbounds { i64, ptr }, ptr %agg.tmp3, i32 0, i32 0
  %11 = load i64, ptr %10, align 8
  %12 = getelementptr inbounds { i64, ptr }, ptr %agg.tmp3, i32 0, i32 1
  %13 = load ptr, ptr %12, align 8
  %call4 = call noundef zeroext i1 @_ZNK6google8protobuf8compiler8internal9AllowlistILm0EE6AllowsESt17basic_string_viewIcSt11char_traitsIcEE(ptr noundef nonnull align 8 dereferenceable(24) @_ZN6google8protobuf8compilerL13k3pCriuProtosE, i64 %11, ptr %13)
  br label %lor.end

lor.end:                                          ; preds = %lor.rhs, %lor.lhs.false, %entry
  %14 = phi i1 [ true, %lor.lhs.false ], [ true, %entry ], [ %call4, %lor.rhs ]
  ret i1 %14
}