; Function Attrs: mustprogress uwtable
define hidden noundef zeroext i1 @_ZN6google8protobuf8compiler18IsEmptyPackageFileESt17basic_string_viewIcSt11char_traitsIcEE(i64 %file.coerce0, ptr %file.coerce1) local_unnamed_addr #3 {
entry:
  %call = tail call noundef zeroext i1 @_ZNK6google8protobuf8compiler8internal9AllowlistILm0EE6AllowsESt17basic_string_viewIcSt11char_traitsIcEE(ptr noundef nonnull align 8 dereferenceable(24) @_ZN6google8protobuf8compilerL13kEmptyPackageE, i64 %file.coerce0, ptr %file.coerce1)
  br i1 %call, label %lor.end, label %lor.lhs.false

lor.lhs.false:                                    ; preds = %entry
  %call2 = tail call noundef zeroext i1 @_ZNK6google8protobuf8compiler8internal9AllowlistILm0EE6AllowsESt17basic_string_viewIcSt11char_traitsIcEE(ptr noundef nonnull align 8 dereferenceable(24) @_ZN6google8protobuf8compilerL15kTradeFedProtosE, i64 %file.coerce0, ptr %file.coerce1)
  br i1 %call2, label %lor.end, label %lor.rhs

lor.rhs:                                          ; preds = %lor.lhs.false
  %call4 = tail call noundef zeroext i1 @_ZNK6google8protobuf8compiler8internal9AllowlistILm0EE6AllowsESt17basic_string_viewIcSt11char_traitsIcEE(ptr noundef nonnull align 8 dereferenceable(24) @_ZN6google8protobuf8compilerL13k3pCriuProtosE, i64 %file.coerce0, ptr %file.coerce1)
  br label %lor.end

lor.end:                                          ; preds = %lor.rhs, %lor.lhs.false, %entry
  %0 = phi i1 [ true, %lor.lhs.false ], [ true, %entry ], [ %call4, %lor.rhs ]
  ret i1 %0
}